target datalayout = "e-m:e-p270:32:32-p271:32:32-p272:64:64-i64:64-i128:128-f80:128-n8:16:32:64-S128"
target triple = "x86_64-pc-linux-gnu"

%struct.SDL_Keyboard = type { ptr, i16, [512 x i8], [512 x i8], ptr, i32, i8, i64, i32 }
%struct.SDL_Keymap = type { ptr, ptr, i8, i8, i8, i8, i8 }

@SDL_keyboard = internal global %struct.SDL_Keyboard zeroinitializer, align 8

; Function Attrs: nounwind uwtable
define hidden void @SDL_SetKeymap(ptr noundef %0, i1 noundef zeroext %1) #0 {
  %3 = alloca ptr, align 8
  %4 = alloca i8, align 1
  %5 = alloca ptr, align 8
  %6 = alloca i32, align 4
  %7 = alloca i32, align 4
  %8 = alloca i32, align 4
  %9 = alloca i32, align 4
  store ptr %0, ptr %3, align 8
  %10 = zext i1 %1 to i8
  store i8 %10, ptr %4, align 1
  call void @llvm.lifetime.start.p0(i64 8, ptr %5) #6
  store ptr @SDL_keyboard, ptr %5, align 8
  %11 = load ptr, ptr %5, align 8
  %12 = getelementptr inbounds nuw %struct.SDL_Keyboard, ptr %11, i32 0, i32 4
  %13 = load ptr, ptr %12, align 8
  %14 = icmp ne ptr %13, null
  br i1 %14, label %15, label %26

15:                                               ; preds = %2
  %16 = load ptr, ptr %5, align 8
  %17 = getelementptr inbounds nuw %struct.SDL_Keyboard, ptr %16, i32 0, i32 4
  %18 = load ptr, ptr %17, align 8
  %19 = getelementptr inbounds nuw %struct.SDL_Keymap, ptr %18, i32 0, i32 2
  %20 = load i8, ptr %19, align 8, !range !3, !noundef !4
  %21 = trunc i8 %20 to i1
  br i1 %21, label %22, label %26

22:                                               ; preds = %15
  %23 = load ptr, ptr %5, align 8
  %24 = getelementptr inbounds nuw %struct.SDL_Keyboard, ptr %23, i32 0, i32 4
  %25 = load ptr, ptr %24, align 8
  call void @SDL_DestroyKeymap(ptr noundef %25)
  br label %26

26:                                               ; preds = %22, %15, %2
  %27 = load ptr, ptr %3, align 8
  %28 = load ptr, ptr %5, align 8
  %29 = getelementptr inbounds nuw %struct.SDL_Keyboard, ptr %28, i32 0, i32 4
  store ptr %27, ptr %29, align 8
  %30 = load ptr, ptr %3, align 8
  %31 = icmp ne ptr %30, null
  br i1 %31, label %32, label %102

32:                                               ; preds = %26
  %33 = load ptr, ptr %3, align 8
  %34 = getelementptr inbounds nuw %struct.SDL_Keymap, ptr %33, i32 0, i32 3
  %35 = load i8, ptr %34, align 1, !range !3, !noundef !4
  %36 = trunc i8 %35 to i1
  br i1 %36, label %102, label %37

37:                                               ; preds = %32
  %38 = load ptr, ptr %3, align 8
  %39 = getelementptr inbounds nuw %struct.SDL_Keymap, ptr %38, i32 0, i32 3
  store i8 1, ptr %39, align 1
  %40 = load ptr, ptr %3, align 8
  %41 = getelementptr inbounds nuw %struct.SDL_Keymap, ptr %40, i32 0, i32 4
  store i8 1, ptr %41, align 2
  call void @llvm.lifetime.start.p0(i64 4, ptr %6) #6
  store i32 30, ptr %6, align 4
  br label %42

42:                                               ; preds = %62, %37
  %43 = load i32, ptr %6, align 4
  %44 = icmp sle i32 %43, 39
  br i1 %44, label %46, label %45

45:                                               ; preds = %42
  store i32 2, ptr %7, align 4
  br label %65

46:                                               ; preds = %42
  %47 = load ptr, ptr %3, align 8
  %48 = load i32, ptr %6, align 4
  %49 = call i32 @SDL_GetKeymapKeycode(ptr noundef %47, i32 noundef %48, i16 noundef zeroext 0)
  %50 = call i32 @SDL_isdigit_REAL(i32 noundef %49)
  %51 = icmp ne i32 %50, 0
  br i1 %51, label %58, label %52

52:                                               ; preds = %46
  %53 = load ptr, ptr %3, align 8
  %54 = load i32, ptr %6, align 4
  %55 = call i32 @SDL_GetKeymapKeycode(ptr noundef %53, i32 noundef %54, i16 noundef zeroext 3)
  %56 = call i32 @SDL_isdigit_REAL(i32 noundef %55)
  %57 = icmp ne i32 %56, 0
  br i1 %57, label %61, label %58

58:                                               ; preds = %52, %46
  %59 = load ptr, ptr %3, align 8
  %60 = getelementptr inbounds nuw %struct.SDL_Keymap, ptr %59, i32 0, i32 4
  store i8 0, ptr %60, align 2
  store i32 2, ptr %7, align 4
  br label %65

61:                                               ; preds = %52
  br label %62

62:                                               ; preds = %61
  %63 = load i32, ptr %6, align 4
  %64 = add nsw i32 %63, 1
  store i32 %64, ptr %6, align 4
  br label %42, !llvm.loop !9

65:                                               ; preds = %58, %45
  call void @llvm.lifetime.end.p0(i64 4, ptr %6) #6
  br label %66

66:                                               ; preds = %65
  %67 = load ptr, ptr %3, align 8
  %68 = getelementptr inbounds nuw %struct.SDL_Keymap, ptr %67, i32 0, i32 6
  store i8 0, ptr %68, align 4
  %69 = load ptr, ptr %3, align 8
  %70 = getelementptr inbounds nuw %struct.SDL_Keymap, ptr %69, i32 0, i32 5
  store i8 0, ptr %70, align 1
  call void @llvm.lifetime.start.p0(i64 4, ptr %8) #6
  store i32 4, ptr %8, align 4
  br label %71

71:                                               ; preds = %97, %66
  %72 = load i32, ptr %8, align 4
  %73 = icmp sle i32 %72, 7
  br i1 %73, label %75, label %74

74:                                               ; preds = %71
  store i32 5, ptr %7, align 4
  br label %100

75:                                               ; preds = %71
  call void @llvm.lifetime.start.p0(i64 4, ptr %9) #6
  %76 = load ptr, ptr %3, align 8
  %77 = load i32, ptr %8, align 4
  %78 = call i32 @SDL_GetKeymapKeycode(ptr noundef %76, i32 noundef %77, i16 noundef zeroext 0)
  store i32 %78, ptr %9, align 4
  %79 = load i32, ptr %9, align 4
  %80 = icmp ule i32 %79, 255
  br i1 %80, label %81, label %84

81:                                               ; preds = %75
  %82 = load ptr, ptr %3, align 8
  %83 = getelementptr inbounds nuw %struct.SDL_Keymap, ptr %82, i32 0, i32 5
  store i8 1, ptr %83, align 1
  store i32 5, ptr %7, align 4
  br label %94

84:                                               ; preds = %75
  %85 = load i32, ptr %9, align 4
  %86 = icmp uge i32 %85, 3584
  br i1 %86, label %87, label %93

87:                                               ; preds = %84
  %88 = load i32, ptr %9, align 4
  %89 = icmp ule i32 %88, 3711
  br i1 %89, label %90, label %93

90:                                               ; preds = %87
  %91 = load ptr, ptr %3, align 8
  %92 = getelementptr inbounds nuw %struct.SDL_Keymap, ptr %91, i32 0, i32 6
  store i8 1, ptr %92, align 4
  store i32 5, ptr %7, align 4
  br label %94

93:                                               ; preds = %87, %84
  store i32 0, ptr %7, align 4
  br label %94

94:                                               ; preds = %93, %90, %81
  call void @llvm.lifetime.end.p0(i64 4, ptr %9) #6
  %95 = load i32, ptr %7, align 4
  switch i32 %95, label %100 [
    i32 0, label %96
  ]

96:                                               ; preds = %94
  br label %97

97:                                               ; preds = %96
  %98 = load i32, ptr %8, align 4
  %99 = add nsw i32 %98, 1
  store i32 %99, ptr %8, align 4
  br label %71, !llvm.loop !10

100:                                              ; preds = %94, %74
  call void @llvm.lifetime.end.p0(i64 4, ptr %8) #6
  br label %101

101:                                              ; preds = %100
  br label %102

102:                                              ; preds = %101, %32, %26
  %103 = load i8, ptr %4, align 1, !range !3, !noundef !4
  %104 = trunc i8 %103 to i1
  br i1 %104, label %105, label %106

105:                                              ; preds = %102
  call void @SDL_SendKeymapChangedEvent()
  br label %106

106:                                              ; preds = %105, %102
  call void @llvm.lifetime.end.p0(i64 8, ptr %5) #6
  ret void
}