; Function Attrs: nounwind uwtable
define hidden void @SDL_SetKeymap(ptr noundef %0, i1 noundef zeroext %1) local_unnamed_addr #0 {
  %3 = load ptr, ptr getelementptr inbounds nuw (i8, ptr @SDL_keyboard, i64 1040), align 8
  %.not = icmp eq ptr %3, null
  br i1 %.not, label %9, label %4

4:                                                ; preds = %2
  %5 = getelementptr inbounds nuw i8, ptr %3, i64 16
  %6 = load i8, ptr %5, align 8, !range !6, !noundef !7
  %7 = trunc nuw i8 %6 to i1
  br i1 %7, label %8, label %9

8:                                                ; preds = %4
  tail call void @SDL_DestroyKeymap(ptr noundef nonnull %3) #13
  br label %9

9:                                                ; preds = %8, %4, %2
  store ptr %0, ptr getelementptr inbounds nuw (i8, ptr @SDL_keyboard, i64 1040), align 8
  %.not34 = icmp eq ptr %0, null
  br i1 %.not34, label %.critedge, label %10

10:                                               ; preds = %9
  %11 = getelementptr inbounds nuw i8, ptr %0, i64 17
  %12 = load i8, ptr %11, align 1, !range !6, !noundef !7
  %13 = trunc nuw i8 %12 to i1
  br i1 %13, label %.critedge, label %14

14:                                               ; preds = %10
  store i8 1, ptr %11, align 1
  %15 = getelementptr inbounds nuw i8, ptr %0, i64 18
  store i8 1, ptr %15, align 2
  br label %18

16:                                               ; preds = %21
  %17 = add nuw nsw i32 %.037, 1
  %exitcond.not = icmp eq i32 %17, 40
  br i1 %exitcond.not, label %.loopexit, label %18, !llvm.loop !9

18:                                               ; preds = %14, %16
  %.037 = phi i32 [ 30, %14 ], [ %17, %16 ]
  %19 = tail call i32 @SDL_GetKeymapKeycode(ptr noundef nonnull %0, i32 noundef %.037, i16 noundef zeroext 0) #13
  %20 = tail call i32 @SDL_isdigit_REAL(i32 noundef %19) #13
  %.not35 = icmp eq i32 %20, 0
  br i1 %.not35, label %21, label %24

21:                                               ; preds = %18
  %22 = tail call i32 @SDL_GetKeymapKeycode(ptr noundef nonnull %0, i32 noundef %.037, i16 noundef zeroext 3) #13
  %23 = tail call i32 @SDL_isdigit_REAL(i32 noundef %22) #13
  %.not36 = icmp eq i32 %23, 0
  br i1 %.not36, label %24, label %16

24:                                               ; preds = %21, %18
  store i8 0, ptr %15, align 2
  br label %.loopexit

.loopexit:                                        ; preds = %16, %24
  %25 = getelementptr inbounds nuw i8, ptr %0, i64 20
  store i8 0, ptr %25, align 4
  %26 = getelementptr inbounds nuw i8, ptr %0, i64 19
  store i8 0, ptr %26, align 1
  br label %29

27:                                               ; preds = %33
  %28 = add nuw nsw i32 %.02938, 1
  %exitcond39.not = icmp eq i32 %28, 8
  br i1 %exitcond39.not, label %.critedge, label %29, !llvm.loop !10

29:                                               ; preds = %.loopexit, %27
  %.02938 = phi i32 [ 4, %.loopexit ], [ %28, %27 ]
  %30 = tail call i32 @SDL_GetKeymapKeycode(ptr noundef nonnull %0, i32 noundef %.02938, i16 noundef zeroext 0) #13
  %31 = icmp ult i32 %30, 256
  br i1 %31, label %32, label %33

32:                                               ; preds = %29
  store i8 1, ptr %26, align 1
  br label %.critedge

33:                                               ; preds = %29
  %34 = and i32 %30, -128
  %or.cond = icmp eq i32 %34, 3584
  br i1 %or.cond, label %35, label %27

35:                                               ; preds = %33
  store i8 1, ptr %25, align 4
  br label %.critedge

.critedge:                                        ; preds = %27, %35, %32, %10, %9
  br i1 %1, label %36, label %37

36:                                               ; preds = %.critedge
  tail call void @SDL_SendKeymapChangedEvent() #13
  br label %37

37:                                               ; preds = %36, %.critedge
  ret void
}